; Function Attrs: mustprogress nofree norecurse nosync nounwind memory(read, argmem: readwrite, inaccessiblemem: none) uwtable
define internal void @_ZL22pj_axisswap_forward_4dR8PJ_COORDP8PJconsts(ptr noundef nonnull align 8 captures(none) dereferenceable(32) %0, ptr noundef readonly captures(none) %1) #6 {
  %3 = alloca %union.PJ_COORD, align 8
  %4 = getelementptr inbounds nuw i8, ptr %1, i64 88
  %5 = load ptr, ptr %4, align 8, !tbaa !40
  call void @llvm.lifetime.start.p0(i64 32, ptr nonnull %3) #13
  %6 = getelementptr inbounds nuw i8, ptr %5, i64 16
  br label %7

7:                                                ; preds = %2, %7
  %indvars.iv = phi i64 [ 0, %2 ], [ %indvars.iv.next, %7 ]
  %8 = getelementptr inbounds nuw [4 x i32], ptr %5, i64 0, i64 %indvars.iv
  %9 = load i32, ptr %8, align 4, !tbaa !42
  %10 = zext i32 %9 to i64
  %11 = getelementptr inbounds nuw [4 x double], ptr %0, i64 0, i64 %10
  %12 = load double, ptr %11, align 8, !tbaa !47
  %13 = getelementptr inbounds nuw [4 x i32], ptr %6, i64 0, i64 %indvars.iv
  %14 = load i32, ptr %13, align 4, !tbaa !42
  %15 = sitofp i32 %14 to double
  %16 = fmul double %12, %15
  %17 = getelementptr inbounds nuw [4 x double], ptr %3, i64 0, i64 %indvars.iv
  store double %16, ptr %17, align 8, !tbaa !47
  %indvars.iv.next = add nuw nsw i64 %indvars.iv, 1
  %exitcond.not = icmp eq i64 %indvars.iv.next, 4
  br i1 %exitcond.not, label %18, label %7, !llvm.loop !61

18:                                               ; preds = %7
  call void @llvm.memcpy.p0.p0.i64(ptr noundef nonnull align 8 dereferenceable(32) %0, ptr noundef nonnull align 8 dereferenceable(32) %3, i64 32, i1 false), !tbaa.struct !62
  call void @llvm.lifetime.end.p0(i64 32, ptr nonnull %3) #13
  ret void
}